target datalayout = "e-m:e-p270:32:32-p271:32:32-p272:64:64-i64:64-i128:128-f80:128-n8:16:32:64-S128"
target triple = "x86_64-pc-linux-gnu"

%struct._zval_struct = type { %union._zend_value, %union.anon, %union.anon.2 }
%union._zend_value = type { i64 }
%union.anon = type { i32 }
%union.anon.2 = type { i32 }
%struct._zend_refcounted_h = type { i32, %union.anon.6 }
%union.anon.6 = type { i32 }
%struct.pdo_stmt_methods = type { ptr, ptr, ptr, ptr, ptr, ptr, ptr, ptr, ptr, ptr, ptr }
%struct._pdo_dbh_t = type { ptr, ptr, ptr, ptr, i32, ptr, i64, [6 x i8], i32, i32, i32, ptr, i64, i32, [2 x ptr], ptr, ptr, %struct._zval_struct, ptr, %struct._zval_struct, i32 }
%struct._pdo_stmt_t = type { ptr, ptr, i32, i32, ptr, %struct._zval_struct, ptr, ptr, ptr, ptr, i64, ptr, ptr, [6 x i8], %struct._zval_struct, i64, i32, %union.anon.3, ptr, %struct._zend_object }
%union.anon.3 = type { %struct.anon.5 }
%struct.anon.5 = type { %struct._zval_struct, %struct._zend_fcall_info, %struct._zend_fcall_info_cache, %struct._zval_struct, %struct._zval_struct, ptr }
%struct._zend_fcall_info = type { i64, %struct._zval_struct, ptr, ptr, ptr, i32, ptr }
%struct._zend_fcall_info_cache = type { ptr, ptr, ptr, ptr, ptr }
%struct._zend_object = type { %struct._zend_refcounted_h, i32, ptr, ptr, ptr, [1 x %struct._zval_struct] }
%struct.pdo_sqlite_db_handle = type { ptr, %struct.pdo_sqlite_error_info, ptr, ptr }
%struct.pdo_sqlite_error_info = type { ptr, i32, i32, ptr }
%struct._zend_string = type { %struct._zend_refcounted_h, i64, i64, [1 x i8] }
%struct.pdo_sqlite_stmt = type { ptr, ptr, i8 }

@.str.12 = private unnamed_addr constant [111 x i8] c"/home/dtcxzyw/WorkSpace/Projects/compilers/llvm-opt-benchmark/bench/php/php-src/ext/pdo_sqlite/sqlite_driver.c\00", align 1
@sqlite_stmt_methods = external constant %struct.pdo_stmt_methods, align 8

; Function Attrs: nounwind uwtable
define internal i64 @pdo_attr_lval(ptr noundef %0, i32 noundef %1, i64 noundef %2) #0 {
  %4 = alloca ptr, align 8
  %5 = alloca ptr, align 8
  %6 = alloca i64, align 8
  %7 = alloca ptr, align 8
  %8 = alloca i32, align 4
  %9 = alloca i64, align 8
  %10 = alloca ptr, align 8
  store ptr %0, ptr %7, align 8
  store i32 %1, ptr %8, align 4
  store i64 %2, ptr %9, align 8
  %11 = load ptr, ptr %7, align 8
  %12 = icmp ne ptr %11, null
  br i1 %12, label %13, label %37

13:                                               ; preds = %3
  %14 = load ptr, ptr %7, align 8
  %15 = getelementptr inbounds %struct._zval_struct, ptr %14, i32 0, i32 0
  %16 = load ptr, ptr %15, align 8
  %17 = load i32, ptr %8, align 4
  %18 = zext i32 %17 to i64
  %19 = call ptr @zend_hash_index_find(ptr noundef %16, i64 noundef %18)
  store ptr %19, ptr %10, align 8
  %20 = icmp ne ptr %19, null
  br i1 %20, label %21, label %37

21:                                               ; preds = %13
  %22 = load ptr, ptr %10, align 8
  store ptr %22, ptr %5, align 8
  %23 = load ptr, ptr %5, align 8
  store ptr %23, ptr %4, align 8
  %24 = load ptr, ptr %4, align 8
  %25 = getelementptr inbounds %struct._zval_struct, ptr %24, i32 0, i32 1
  %26 = load i8, ptr %25, align 8
  %27 = zext i8 %26 to i32
  %28 = icmp eq i32 %27, 4
  br i1 %28, label %29, label %32

29:                                               ; preds = %21
  %30 = load ptr, ptr %5, align 8
  %31 = load i64, ptr %30, align 8
  br label %35

32:                                               ; preds = %21
  %33 = load ptr, ptr %5, align 8
  %34 = call i64 @zval_get_long_func(ptr noundef %33, i1 noundef zeroext false) #9
  br label %35

35:                                               ; preds = %32, %29
  %36 = phi i64 [ %31, %29 ], [ %34, %32 ]
  store i64 %36, ptr %6, align 8
  br label %39

37:                                               ; preds = %13, %3
  %38 = load i64, ptr %9, align 8
  store i64 %38, ptr %6, align 8
  br label %39

39:                                               ; preds = %37, %35
  %40 = load i64, ptr %6, align 8
  ret i64 %40
}

; Function Attrs: nounwind uwtable
define internal zeroext i1 @sqlite_handle_preparer(ptr noundef %0, ptr noundef %1, ptr noundef %2, ptr noundef %3) #0 {
  %5 = alloca i1, align 1
  %6 = alloca ptr, align 8
  %7 = alloca ptr, align 8
  %8 = alloca ptr, align 8
  %9 = alloca ptr, align 8
  %10 = alloca ptr, align 8
  %11 = alloca ptr, align 8
  %12 = alloca i32, align 4
  %13 = alloca ptr, align 8
  store ptr %0, ptr %6, align 8
  store ptr %1, ptr %7, align 8
  store ptr %2, ptr %8, align 8
  store ptr %3, ptr %9, align 8
  %14 = load ptr, ptr %6, align 8
  %15 = getelementptr inbounds %struct._pdo_dbh_t, ptr %14, i32 0, i32 1
  %16 = load ptr, ptr %15, align 8
  store ptr %16, ptr %10, align 8
  %17 = call noalias ptr @_ecalloc(i64 noundef 1, i64 noundef 24) #10
  store ptr %17, ptr %11, align 8
  %18 = load ptr, ptr %10, align 8
  %19 = load ptr, ptr %11, align 8
  %20 = getelementptr inbounds %struct.pdo_sqlite_stmt, ptr %19, i32 0, i32 0
  store ptr %18, ptr %20, align 8
  %21 = load ptr, ptr %11, align 8
  %22 = load ptr, ptr %8, align 8
  %23 = getelementptr inbounds %struct._pdo_stmt_t, ptr %22, i32 0, i32 1
  store ptr %21, ptr %23, align 8
  %24 = load ptr, ptr %8, align 8
  %25 = getelementptr inbounds %struct._pdo_stmt_t, ptr %24, i32 0, i32 0
  store ptr @sqlite_stmt_methods, ptr %25, align 8
  %26 = load ptr, ptr %8, align 8
  %27 = getelementptr inbounds %struct._pdo_stmt_t, ptr %26, i32 0, i32 2
  %28 = load i32, ptr %27, align 8
  %29 = and i32 %28, -7
  %30 = or i32 %29, 6
  store i32 %30, ptr %27, align 8
  %31 = load ptr, ptr %9, align 8
  %32 = call i64 @pdo_attr_lval(ptr noundef %31, i32 noundef 10, i64 noundef 0)
  %33 = icmp ne i64 0, %32
  br i1 %33, label %34, label %40

34:                                               ; preds = %4
  %35 = load ptr, ptr %10, align 8
  %36 = getelementptr inbounds %struct.pdo_sqlite_db_handle, ptr %35, i32 0, i32 1
  %37 = getelementptr inbounds %struct.pdo_sqlite_error_info, ptr %36, i32 0, i32 2
  store i32 1, ptr %37, align 4
  %38 = load ptr, ptr %6, align 8
  %39 = call i32 @_pdo_sqlite_error(ptr noundef %38, ptr noundef null, ptr noundef @.str.12, i32 noundef 189)
  store i1 false, ptr %5, align 1
  br label %60

40:                                               ; preds = %4
  %41 = load ptr, ptr %10, align 8
  %42 = getelementptr inbounds %struct.pdo_sqlite_db_handle, ptr %41, i32 0, i32 0
  %43 = load ptr, ptr %42, align 8
  %44 = load ptr, ptr %7, align 8
  %45 = getelementptr inbounds %struct._zend_string, ptr %44, i32 0, i32 3
  %46 = getelementptr inbounds [1 x i8], ptr %45, i64 0, i64 0
  %47 = load ptr, ptr %7, align 8
  %48 = getelementptr inbounds %struct._zend_string, ptr %47, i32 0, i32 2
  %49 = load i64, ptr %48, align 8
  %50 = trunc i64 %49 to i32
  %51 = load ptr, ptr %11, align 8
  %52 = getelementptr inbounds %struct.pdo_sqlite_stmt, ptr %51, i32 0, i32 1
  %53 = call i32 @sqlite3_prepare_v2(ptr noundef %43, ptr noundef %46, i32 noundef %50, ptr noundef %52, ptr noundef %13)
  store i32 %53, ptr %12, align 4
  %54 = load i32, ptr %12, align 4
  %55 = icmp eq i32 %54, 0
  br i1 %55, label %56, label %57

56:                                               ; preds = %40
  store i1 true, ptr %5, align 1
  br label %60

57:                                               ; preds = %40
  %58 = load ptr, ptr %6, align 8
  %59 = call i32 @_pdo_sqlite_error(ptr noundef %58, ptr noundef null, ptr noundef @.str.12, i32 noundef 198)
  store i1 false, ptr %5, align 1
  br label %60

60:                                               ; preds = %57, %56, %34
  %61 = load i1, ptr %5, align 1
  ret i1 %61
}