; Function Attrs: nounwind uwtable
define internal noundef zeroext i1 @sqlite_handle_preparer(ptr noundef %0, ptr noundef %1, ptr nocapture noundef %2, ptr noundef readonly %3) #0 {
  %5 = alloca ptr, align 8
  %6 = getelementptr inbounds i8, ptr %0, i64 8
  %7 = load ptr, ptr %6, align 8
  %8 = tail call noalias dereferenceable_or_null(24) ptr @_ecalloc(i64 noundef 1, i64 noundef 24) #12
  store ptr %7, ptr %8, align 8
  %9 = getelementptr inbounds i8, ptr %2, i64 8
  store ptr %8, ptr %9, align 8
  store ptr @sqlite_stmt_methods, ptr %2, align 8
  %10 = getelementptr inbounds i8, ptr %2, i64 16
  %11 = load i32, ptr %10, align 8
  %12 = or i32 %11, 6
  store i32 %12, ptr %10, align 8
  %.not.i = icmp eq ptr %3, null
  br i1 %.not.i, label %pdo_attr_lval.exit.thread, label %13

13:                                               ; preds = %4
  %14 = load ptr, ptr %3, align 8
  %15 = tail call ptr @zend_hash_index_find(ptr noundef %14, i64 noundef 10) #11
  %.not11.i = icmp eq ptr %15, null
  br i1 %.not11.i, label %pdo_attr_lval.exit.thread, label %16

16:                                               ; preds = %13
  %17 = getelementptr inbounds i8, ptr %15, i64 8
  %18 = load i8, ptr %17, align 8
  %19 = icmp eq i8 %18, 4
  br i1 %19, label %20, label %22

20:                                               ; preds = %16
  %21 = load i64, ptr %15, align 8
  br label %pdo_attr_lval.exit

22:                                               ; preds = %16
  %23 = tail call i64 @zval_get_long_func(ptr noundef nonnull %15, i1 noundef zeroext false) #11
  br label %pdo_attr_lval.exit

pdo_attr_lval.exit:                               ; preds = %20, %22
  %.0.i = phi i64 [ %21, %20 ], [ %23, %22 ]
  %.not = icmp eq i64 %.0.i, 0
  br i1 %.not, label %pdo_attr_lval.exit.thread, label %24

24:                                               ; preds = %pdo_attr_lval.exit
  %25 = getelementptr inbounds i8, ptr %7, i64 20
  store i32 1, ptr %25, align 4
  %26 = tail call i32 @_pdo_sqlite_error(ptr noundef nonnull %0, ptr noundef null, ptr noundef nonnull @.str.12, i32 noundef 189)
  br label %37

pdo_attr_lval.exit.thread:                        ; preds = %4, %13, %pdo_attr_lval.exit
  %27 = load ptr, ptr %7, align 8
  %28 = getelementptr inbounds i8, ptr %1, i64 24
  %29 = getelementptr inbounds i8, ptr %1, i64 16
  %30 = load i64, ptr %29, align 8
  %31 = trunc i64 %30 to i32
  %32 = getelementptr inbounds i8, ptr %8, i64 8
  %33 = call i32 @sqlite3_prepare_v2(ptr noundef %27, ptr noundef nonnull %28, i32 noundef %31, ptr noundef nonnull %32, ptr noundef nonnull %5) #11
  %34 = icmp eq i32 %33, 0
  br i1 %34, label %37, label %35

35:                                               ; preds = %pdo_attr_lval.exit.thread
  %36 = call i32 @_pdo_sqlite_error(ptr noundef nonnull %0, ptr noundef null, ptr noundef nonnull @.str.12, i32 noundef 198)
  br label %37

37:                                               ; preds = %pdo_attr_lval.exit.thread, %35, %24
  %.0 = phi i1 [ false, %24 ], [ false, %35 ], [ true, %pdo_attr_lval.exit.thread ]
  ret i1 %.0
}